target datalayout = "e-m:e-p270:32:32-p271:32:32-p272:64:64-i64:64-i128:128-f80:128-n8:16:32:64-S128"
target triple = "x86_64-pc-linux-gnu"

%struct.pmix_proc = type { [256 x i8], i32 }
%struct.pmix_range_trkr_t = type { i8, ptr, i64 }

; Function Attrs: nounwind uwtable
define zeroext i1 @pmix_notify_check_range(ptr noundef %0, ptr noundef %1) #0 {
  %3 = alloca i1, align 1
  %4 = alloca ptr, align 8
  %5 = alloca ptr, align 8
  %6 = alloca i64, align 8
  %7 = alloca i32, align 4
  store ptr %0, ptr %4, align 8, !tbaa !15
  store ptr %1, ptr %5, align 8, !tbaa !7
  call void @llvm.lifetime.start.p0(i64 8, ptr %6) #13
  %8 = load ptr, ptr %4, align 8, !tbaa !15
  %9 = getelementptr inbounds nuw %struct.pmix_range_trkr_t, ptr %8, i32 0, i32 0
  %10 = load i8, ptr %9, align 8, !tbaa !205
  %11 = zext i8 %10 to i32
  %12 = icmp eq i32 0, %11
  br i1 %12, label %31, label %13

13:                                               ; preds = %2
  %14 = load ptr, ptr %4, align 8, !tbaa !15
  %15 = getelementptr inbounds nuw %struct.pmix_range_trkr_t, ptr %14, i32 0, i32 0
  %16 = load i8, ptr %15, align 8, !tbaa !205
  %17 = zext i8 %16 to i32
  %18 = icmp eq i32 5, %17
  br i1 %18, label %31, label %19

19:                                               ; preds = %13
  %20 = load ptr, ptr %4, align 8, !tbaa !15
  %21 = getelementptr inbounds nuw %struct.pmix_range_trkr_t, ptr %20, i32 0, i32 0
  %22 = load i8, ptr %21, align 8, !tbaa !205
  %23 = zext i8 %22 to i32
  %24 = icmp eq i32 4, %23
  br i1 %24, label %31, label %25

25:                                               ; preds = %19
  %26 = load ptr, ptr %4, align 8, !tbaa !15
  %27 = getelementptr inbounds nuw %struct.pmix_range_trkr_t, ptr %26, i32 0, i32 0
  %28 = load i8, ptr %27, align 8, !tbaa !205
  %29 = zext i8 %28 to i32
  %30 = icmp eq i32 2, %29
  br i1 %30, label %31, label %32

31:                                               ; preds = %25, %19, %13, %2
  store i1 true, ptr %3, align 1
  store i32 1, ptr %7, align 4
  br label %145

32:                                               ; preds = %25
  %33 = load ptr, ptr %4, align 8, !tbaa !15
  %34 = getelementptr inbounds nuw %struct.pmix_range_trkr_t, ptr %33, i32 0, i32 0
  %35 = load i8, ptr %34, align 8, !tbaa !205
  %36 = zext i8 %35 to i32
  %37 = icmp eq i32 3, %36
  br i1 %37, label %38, label %63

38:                                               ; preds = %32
  store i64 0, ptr %6, align 8, !tbaa !13
  br label %39

39:                                               ; preds = %59, %38
  %40 = load i64, ptr %6, align 8, !tbaa !13
  %41 = load ptr, ptr %4, align 8, !tbaa !15
  %42 = getelementptr inbounds nuw %struct.pmix_range_trkr_t, ptr %41, i32 0, i32 2
  %43 = load i64, ptr %42, align 8, !tbaa !206
  %44 = icmp ult i64 %40, %43
  br i1 %44, label %45, label %62

45:                                               ; preds = %39
  %46 = load ptr, ptr %4, align 8, !tbaa !15
  %47 = getelementptr inbounds nuw %struct.pmix_range_trkr_t, ptr %46, i32 0, i32 1
  %48 = load ptr, ptr %47, align 8, !tbaa !207
  %49 = load i64, ptr %6, align 8, !tbaa !13
  %50 = getelementptr inbounds nuw %struct.pmix_proc, ptr %48, i64 %49
  %51 = getelementptr inbounds nuw %struct.pmix_proc, ptr %50, i32 0, i32 0
  %52 = getelementptr inbounds [256 x i8], ptr %51, i64 0, i64 0
  %53 = load ptr, ptr %5, align 8, !tbaa !7
  %54 = getelementptr inbounds nuw %struct.pmix_proc, ptr %53, i32 0, i32 0
  %55 = getelementptr inbounds [256 x i8], ptr %54, i64 0, i64 0
  %56 = call zeroext i1 @PMIx_Check_nspace(ptr noundef %52, ptr noundef %55)
  br i1 %56, label %57, label %58

57:                                               ; preds = %45
  store i1 true, ptr %3, align 1
  store i32 1, ptr %7, align 4
  br label %145

58:                                               ; preds = %45
  br label %59

59:                                               ; preds = %58
  %60 = load i64, ptr %6, align 8, !tbaa !13
  %61 = add i64 %60, 1
  store i64 %61, ptr %6, align 8, !tbaa !13
  br label %39, !llvm.loop !208

62:                                               ; preds = %39
  store i1 false, ptr %3, align 1
  store i32 1, ptr %7, align 4
  br label %145

63:                                               ; preds = %32
  %64 = load ptr, ptr %4, align 8, !tbaa !15
  %65 = getelementptr inbounds nuw %struct.pmix_range_trkr_t, ptr %64, i32 0, i32 0
  %66 = load i8, ptr %65, align 8, !tbaa !205
  %67 = zext i8 %66 to i32
  %68 = icmp eq i32 7, %67
  br i1 %68, label %69, label %90

69:                                               ; preds = %63
  store i64 0, ptr %6, align 8, !tbaa !13
  br label %70

70:                                               ; preds = %86, %69
  %71 = load i64, ptr %6, align 8, !tbaa !13
  %72 = load ptr, ptr %4, align 8, !tbaa !15
  %73 = getelementptr inbounds nuw %struct.pmix_range_trkr_t, ptr %72, i32 0, i32 2
  %74 = load i64, ptr %73, align 8, !tbaa !206
  %75 = icmp ult i64 %71, %74
  br i1 %75, label %76, label %89

76:                                               ; preds = %70
  %77 = load ptr, ptr %4, align 8, !tbaa !15
  %78 = getelementptr inbounds nuw %struct.pmix_range_trkr_t, ptr %77, i32 0, i32 1
  %79 = load ptr, ptr %78, align 8, !tbaa !207
  %80 = load i64, ptr %6, align 8, !tbaa !13
  %81 = getelementptr inbounds nuw %struct.pmix_proc, ptr %79, i64 %80
  %82 = load ptr, ptr %5, align 8, !tbaa !7
  %83 = call zeroext i1 @PMIx_Check_procid(ptr noundef %81, ptr noundef %82)
  br i1 %83, label %84, label %85

84:                                               ; preds = %76
  store i1 true, ptr %3, align 1
  store i32 1, ptr %7, align 4
  br label %145

85:                                               ; preds = %76
  br label %86

86:                                               ; preds = %85
  %87 = load i64, ptr %6, align 8, !tbaa !13
  %88 = add i64 %87, 1
  store i64 %88, ptr %6, align 8, !tbaa !13
  br label %70, !llvm.loop !209

89:                                               ; preds = %70
  store i1 false, ptr %3, align 1
  store i32 1, ptr %7, align 4
  br label %145

90:                                               ; preds = %63
  %91 = load ptr, ptr %4, align 8, !tbaa !15
  %92 = getelementptr inbounds nuw %struct.pmix_range_trkr_t, ptr %91, i32 0, i32 0
  %93 = load i8, ptr %92, align 8, !tbaa !205
  %94 = zext i8 %93 to i32
  %95 = icmp eq i32 6, %94
  br i1 %95, label %96, label %144

96:                                               ; preds = %90
  store i64 0, ptr %6, align 8, !tbaa !13
  br label %97

97:                                               ; preds = %140, %96
  %98 = load i64, ptr %6, align 8, !tbaa !13
  %99 = load ptr, ptr %4, align 8, !tbaa !15
  %100 = getelementptr inbounds nuw %struct.pmix_range_trkr_t, ptr %99, i32 0, i32 2
  %101 = load i64, ptr %100, align 8, !tbaa !206
  %102 = icmp ult i64 %98, %101
  br i1 %102, label %103, label %143

103:                                              ; preds = %97
  %104 = load ptr, ptr %4, align 8, !tbaa !15
  %105 = getelementptr inbounds nuw %struct.pmix_range_trkr_t, ptr %104, i32 0, i32 1
  %106 = load ptr, ptr %105, align 8, !tbaa !207
  %107 = load i64, ptr %6, align 8, !tbaa !13
  %108 = getelementptr inbounds nuw %struct.pmix_proc, ptr %106, i64 %107
  %109 = getelementptr inbounds nuw %struct.pmix_proc, ptr %108, i32 0, i32 0
  %110 = getelementptr inbounds [256 x i8], ptr %109, i64 0, i64 0
  %111 = load ptr, ptr %5, align 8, !tbaa !7
  %112 = getelementptr inbounds nuw %struct.pmix_proc, ptr %111, i32 0, i32 0
  %113 = getelementptr inbounds [256 x i8], ptr %112, i64 0, i64 0
  %114 = call i32 @strncmp(ptr noundef %110, ptr noundef %113, i64 noundef 255) #16
  %115 = icmp ne i32 0, %114
  br i1 %115, label %116, label %117

116:                                              ; preds = %103
  br label %140

117:                                              ; preds = %103
  %118 = load ptr, ptr %4, align 8, !tbaa !15
  %119 = getelementptr inbounds nuw %struct.pmix_range_trkr_t, ptr %118, i32 0, i32 1
  %120 = load ptr, ptr %119, align 8, !tbaa !207
  %121 = load i64, ptr %6, align 8, !tbaa !13
  %122 = getelementptr inbounds nuw %struct.pmix_proc, ptr %120, i64 %121
  %123 = getelementptr inbounds nuw %struct.pmix_proc, ptr %122, i32 0, i32 1
  %124 = load i32, ptr %123, align 4, !tbaa !64
  %125 = icmp eq i32 -2, %124
  br i1 %125, label %138, label %126

126:                                              ; preds = %117
  %127 = load ptr, ptr %4, align 8, !tbaa !15
  %128 = getelementptr inbounds nuw %struct.pmix_range_trkr_t, ptr %127, i32 0, i32 1
  %129 = load ptr, ptr %128, align 8, !tbaa !207
  %130 = load i64, ptr %6, align 8, !tbaa !13
  %131 = getelementptr inbounds nuw %struct.pmix_proc, ptr %129, i64 %130
  %132 = getelementptr inbounds nuw %struct.pmix_proc, ptr %131, i32 0, i32 1
  %133 = load i32, ptr %132, align 4, !tbaa !64
  %134 = load ptr, ptr %5, align 8, !tbaa !7
  %135 = getelementptr inbounds nuw %struct.pmix_proc, ptr %134, i32 0, i32 1
  %136 = load i32, ptr %135, align 4, !tbaa !64
  %137 = icmp eq i32 %133, %136
  br i1 %137, label %138, label %139

138:                                              ; preds = %126, %117
  store i1 true, ptr %3, align 1
  store i32 1, ptr %7, align 4
  br label %145

139:                                              ; preds = %126
  br label %140

140:                                              ; preds = %139, %116
  %141 = load i64, ptr %6, align 8, !tbaa !13
  %142 = add i64 %141, 1
  store i64 %142, ptr %6, align 8, !tbaa !13
  br label %97, !llvm.loop !210

143:                                              ; preds = %97
  store i1 false, ptr %3, align 1
  store i32 1, ptr %7, align 4
  br label %145

144:                                              ; preds = %90
  store i1 false, ptr %3, align 1
  store i32 1, ptr %7, align 4
  br label %145

145:                                              ; preds = %144, %143, %138, %89, %84, %62, %57, %31
  call void @llvm.lifetime.end.p0(i64 8, ptr %6) #13
  %146 = load i1, ptr %3, align 1
  ret i1 %146
}