; Function Attrs: nounwind uwtable
define noundef zeroext i1 @pmix_notify_check_range(ptr noundef readonly captures(none) %0, ptr noundef %1) local_unnamed_addr #0 {
  %3 = load i8, ptr %0, align 8, !tbaa !183
  switch i8 %3, label %43 [
    i8 0, label %.loopexit
    i8 5, label %.loopexit
    i8 4, label %.loopexit
    i8 2, label %.loopexit
    i8 3, label %.preheader
    i8 7, label %.preheader33
    i8 6, label %.preheader36
  ]

.preheader36:                                     ; preds = %2
  %4 = getelementptr inbounds nuw i8, ptr %1, i64 256
  %5 = getelementptr inbounds nuw i8, ptr %0, i64 16
  %6 = load i64, ptr %5, align 8, !tbaa !184
  %.not54 = icmp eq i64 %6, 0
  br i1 %.not54, label %.loopexit, label %.lr.ph

.lr.ph:                                           ; preds = %.preheader36
  %7 = getelementptr inbounds nuw i8, ptr %0, i64 8
  %8 = load ptr, ptr %7, align 8, !tbaa !185
  br label %31

.preheader33:                                     ; preds = %2
  %9 = getelementptr inbounds nuw i8, ptr %0, i64 16
  %10 = load i64, ptr %9, align 8, !tbaa !184
  %.not55 = icmp eq i64 %10, 0
  br i1 %.not55, label %.loopexit, label %.lr.ph45

.lr.ph45:                                         ; preds = %.preheader33
  %11 = getelementptr inbounds nuw i8, ptr %0, i64 8
  br label %27

.preheader:                                       ; preds = %2
  %12 = getelementptr inbounds nuw i8, ptr %0, i64 16
  %13 = load i64, ptr %12, align 8, !tbaa !184
  %.not56 = icmp eq i64 %13, 0
  br i1 %.not56, label %.loopexit, label %.lr.ph50

.lr.ph50:                                         ; preds = %.preheader
  %14 = getelementptr inbounds nuw i8, ptr %0, i64 8
  br label %19

15:                                               ; preds = %19
  %16 = add nuw i64 %.049, 1
  %17 = load i64, ptr %12, align 8, !tbaa !184
  %18 = icmp ult i64 %16, %17
  br i1 %18, label %19, label %.loopexit, !llvm.loop !186

19:                                               ; preds = %.lr.ph50, %15
  %.049 = phi i64 [ 0, %.lr.ph50 ], [ %16, %15 ]
  %20 = load ptr, ptr %14, align 8, !tbaa !185
  %21 = getelementptr inbounds nuw %struct.pmix_proc, ptr %20, i64 %.049
  %22 = tail call zeroext i1 @PMIx_Check_nspace(ptr noundef %21, ptr noundef %1) #15
  br i1 %22, label %.loopexit, label %15

23:                                               ; preds = %27
  %24 = add nuw i64 %.144, 1
  %25 = load i64, ptr %9, align 8, !tbaa !184
  %26 = icmp ult i64 %24, %25
  br i1 %26, label %27, label %.loopexit, !llvm.loop !187

27:                                               ; preds = %.lr.ph45, %23
  %.144 = phi i64 [ 0, %.lr.ph45 ], [ %24, %23 ]
  %28 = load ptr, ptr %11, align 8, !tbaa !185
  %29 = getelementptr inbounds nuw %struct.pmix_proc, ptr %28, i64 %.144
  %30 = tail call zeroext i1 @PMIx_Check_procid(ptr noundef %29, ptr noundef %1) #15
  br i1 %30, label %.loopexit, label %23

31:                                               ; preds = %.lr.ph, %41
  %.239 = phi i64 [ 0, %.lr.ph ], [ %42, %41 ]
  %32 = getelementptr inbounds nuw %struct.pmix_proc, ptr %8, i64 %.239
  %33 = tail call i32 @strncmp(ptr noundef nonnull dereferenceable(1) %32, ptr noundef nonnull dereferenceable(1) %1, i64 noundef 255) #20
  %.not = icmp eq i32 %33, 0
  br i1 %.not, label %34, label %41

34:                                               ; preds = %31
  %35 = getelementptr inbounds nuw i8, ptr %32, i64 256
  %36 = load i32, ptr %35, align 4, !tbaa !56
  %37 = icmp eq i32 %36, -2
  br i1 %37, label %.loopexit, label %38

38:                                               ; preds = %34
  %39 = load i32, ptr %4, align 4, !tbaa !56
  %40 = icmp eq i32 %36, %39
  br i1 %40, label %.loopexit, label %41

41:                                               ; preds = %38, %31
  %42 = add nuw i64 %.239, 1
  %exitcond.not = icmp eq i64 %42, %6
  br i1 %exitcond.not, label %.loopexit, label %31, !llvm.loop !188

43:                                               ; preds = %2
  br label %.loopexit

.loopexit:                                        ; preds = %38, %34, %41, %27, %23, %19, %15, %.preheader36, %.preheader33, %.preheader, %2, %2, %2, %2, %43
  %.030 = phi i1 [ false, %43 ], [ true, %2 ], [ true, %2 ], [ true, %2 ], [ true, %2 ], [ false, %.preheader ], [ false, %.preheader33 ], [ false, %.preheader36 ], [ %22, %15 ], [ %22, %19 ], [ %30, %23 ], [ %30, %27 ], [ true, %38 ], [ true, %34 ], [ false, %41 ]
  ret i1 %.030
}